target datalayout = "e-m:e-p270:32:32-p271:32:32-p272:64:64-i64:64-i128:128-f80:128-n8:16:32:64-S128"
target triple = "x86_64-pc-linux-gnu"

%"class.nlsat::ineq_atom" = type { %"class.nlsat::atom", i32, [0 x ptr] }
%"class.nlsat::atom" = type { i32, i32, i32, i32 }

; Function Attrs: mustprogress nounwind uwtable
define linkonce_odr hidden void @_ZN5nlsat4atomC2ENS0_4kindEj(ptr noundef nonnull align 4 dereferenceable(16) %0, i32 noundef %1, i32 noundef %2) unnamed_addr #4 comdat align 2 {
  %4 = alloca ptr, align 8
  %5 = alloca i32, align 4
  %6 = alloca i32, align 4
  store ptr %0, ptr %4, align 8, !tbaa !32
  store i32 %1, ptr %5, align 4, !tbaa !18
  store i32 %2, ptr %6, align 4, !tbaa !8
  %7 = load ptr, ptr %4, align 8
  %8 = getelementptr inbounds nuw %"class.nlsat::atom", ptr %7, i32 0, i32 0
  %9 = load i32, ptr %5, align 4, !tbaa !18
  store i32 %9, ptr %8, align 4, !tbaa !34
  %10 = getelementptr inbounds nuw %"class.nlsat::atom", ptr %7, i32 0, i32 1
  store i32 0, ptr %10, align 4, !tbaa !35
  %11 = getelementptr inbounds nuw %"class.nlsat::atom", ptr %7, i32 0, i32 2
  store i32 2147483647, ptr %11, align 4, !tbaa !36
  %12 = getelementptr inbounds nuw %"class.nlsat::atom", ptr %7, i32 0, i32 3
  %13 = load i32, ptr %6, align 4, !tbaa !8
  store i32 %13, ptr %12, align 4, !tbaa !37
  ret void
}

; Function Attrs: mustprogress uwtable
define hidden void @_ZN5nlsat9ineq_atomC2ENS_4atom4kindEjPKPN10polynomial10polynomialEPKbj(ptr noundef nonnull align 8 dereferenceable(24) %0, i32 noundef %1, i32 noundef %2, ptr noundef %3, ptr noundef %4, i32 noundef %5) unnamed_addr #6 align 2 {
  %7 = alloca ptr, align 8
  %8 = alloca i32, align 4
  %9 = alloca i32, align 4
  %10 = alloca ptr, align 8
  %11 = alloca ptr, align 8
  %12 = alloca i32, align 4
  %13 = alloca i32, align 4
  store ptr %0, ptr %7, align 8, !tbaa !16
  store i32 %1, ptr %8, align 4, !tbaa !18
  store i32 %2, ptr %9, align 4, !tbaa !8
  store ptr %3, ptr %10, align 8, !tbaa !20
  store ptr %4, ptr %11, align 8, !tbaa !23
  store i32 %5, ptr %12, align 4, !tbaa !8
  %14 = load ptr, ptr %7, align 8
  %15 = load i32, ptr %8, align 4, !tbaa !18
  %16 = load i32, ptr %12, align 4, !tbaa !8
  call void @_ZN5nlsat4atomC2ENS0_4kindEj(ptr noundef nonnull align 4 dereferenceable(16) %14, i32 noundef %15, i32 noundef %16)
  %17 = getelementptr inbounds nuw %"class.nlsat::ineq_atom", ptr %14, i32 0, i32 1
  %18 = load i32, ptr %9, align 4, !tbaa !8
  store i32 %18, ptr %17, align 8, !tbaa !25
  call void @llvm.lifetime.start.p0(i64 4, ptr %13) #3
  store i32 0, ptr %13, align 4, !tbaa !8
  br label %19

19:                                               ; preds = %46, %6
  %20 = load i32, ptr %13, align 4, !tbaa !8
  %21 = getelementptr inbounds nuw %"class.nlsat::ineq_atom", ptr %14, i32 0, i32 1
  %22 = load i32, ptr %21, align 8, !tbaa !25
  %23 = icmp ult i32 %20, %22
  br i1 %23, label %25, label %24

24:                                               ; preds = %19
  call void @llvm.lifetime.end.p0(i64 4, ptr %13) #3
  br label %49

25:                                               ; preds = %19
  %26 = load ptr, ptr %10, align 8, !tbaa !20
  %27 = load i32, ptr %13, align 4, !tbaa !8
  %28 = zext i32 %27 to i64
  %29 = getelementptr inbounds nuw ptr, ptr %26, i64 %28
  %30 = load ptr, ptr %29, align 8, !tbaa !28
  %31 = ptrtoint ptr %30 to i64
  %32 = load ptr, ptr %11, align 8, !tbaa !23
  %33 = load i32, ptr %13, align 4, !tbaa !8
  %34 = zext i32 %33 to i64
  %35 = getelementptr inbounds nuw i8, ptr %32, i64 %34
  %36 = load i8, ptr %35, align 1, !tbaa !10, !range !12, !noundef !13
  %37 = trunc i8 %36 to i1
  %38 = select i1 %37, i32 1, i32 0
  %39 = sext i32 %38 to i64
  %40 = or i64 %31, %39
  %41 = inttoptr i64 %40 to ptr
  %42 = getelementptr inbounds nuw %"class.nlsat::ineq_atom", ptr %14, i32 0, i32 2
  %43 = load i32, ptr %13, align 4, !tbaa !8
  %44 = zext i32 %43 to i64
  %45 = getelementptr inbounds nuw [0 x ptr], ptr %42, i64 0, i64 %44
  store ptr %41, ptr %45, align 8, !tbaa !28
  br label %46

46:                                               ; preds = %25
  %47 = load i32, ptr %13, align 4, !tbaa !8
  %48 = add i32 %47, 1
  store i32 %48, ptr %13, align 4, !tbaa !8
  br label %19, !llvm.loop !30

49:                                               ; preds = %24
  ret void
}