; Function Attrs: mustprogress nofree norecurse nosync nounwind memory(argmem: readwrite) uwtable
define hidden void @_ZN5nlsat9ineq_atomC2ENS_4atom4kindEjPKPN10polynomial10polynomialEPKbj(ptr noundef nonnull writeonly align 8 captures(none) dereferenceable(24) initializes((0, 20)) %0, i32 noundef %1, i32 noundef %2, ptr noundef readonly captures(none) %3, ptr noundef readonly captures(none) %4, i32 noundef %5) unnamed_addr #4 align 2 {
  store i32 %1, ptr %0, align 8, !tbaa !3
  %7 = getelementptr inbounds nuw i8, ptr %0, i64 4
  store i32 0, ptr %7, align 4, !tbaa !9
  %8 = getelementptr inbounds nuw i8, ptr %0, i64 8
  store i32 2147483647, ptr %8, align 8, !tbaa !10
  %9 = getelementptr inbounds nuw i8, ptr %0, i64 12
  store i32 %5, ptr %9, align 4, !tbaa !11
  %10 = getelementptr inbounds nuw i8, ptr %0, i64 16
  store i32 %2, ptr %10, align 8, !tbaa !12
  %.not = icmp eq i32 %2, 0
  br i1 %.not, label %._crit_edge, label %.lr.ph

.lr.ph:                                           ; preds = %6
  %11 = getelementptr inbounds nuw i8, ptr %0, i64 24
  %wide.trip.count = zext i32 %2 to i64
  br label %12

._crit_edge:                                      ; preds = %12, %6
  ret void

12:                                               ; preds = %.lr.ph, %12
  %indvars.iv = phi i64 [ 0, %.lr.ph ], [ %indvars.iv.next, %12 ]
  %13 = getelementptr inbounds nuw ptr, ptr %3, i64 %indvars.iv
  %14 = load ptr, ptr %13, align 8, !tbaa !14
  %15 = ptrtoint ptr %14 to i64
  %16 = getelementptr inbounds nuw i8, ptr %4, i64 %indvars.iv
  %17 = load i8, ptr %16, align 1, !tbaa !17, !range !19, !noundef !20
  %18 = zext nneg i8 %17 to i64
  %19 = or i64 %18, %15
  %20 = inttoptr i64 %19 to ptr
  %21 = getelementptr inbounds nuw [0 x ptr], ptr %11, i64 0, i64 %indvars.iv
  store ptr %20, ptr %21, align 8, !tbaa !14
  %indvars.iv.next = add nuw nsw i64 %indvars.iv, 1
  %exitcond.not = icmp eq i64 %indvars.iv.next, %wide.trip.count
  br i1 %exitcond.not, label %._crit_edge, label %12, !llvm.loop !21
}